; Function Attrs: mustprogress uwtable
define void @_ZN8QuantLib14ShortRateModelC2Em(ptr noundef nonnull align 8 dereferenceable(76) %this, ptr nocapture noundef readonly %vtt, i64 noundef %nArguments) unnamed_addr #1 align 2 {
entry:
  %0 = getelementptr inbounds i8, ptr %vtt, i64 8
  tail call void @_ZN8QuantLib15CalibratedModelC2Em(ptr noundef nonnull align 8 dereferenceable(76) %this, ptr noundef nonnull %0, i64 noundef %nArguments)
  %1 = load ptr, ptr %vtt, align 8
  store ptr %1, ptr %this, align 8, !tbaa !14
  %2 = getelementptr inbounds i8, ptr %vtt, i64 32
  %3 = load ptr, ptr %2, align 8
  %vbase.offset.ptr = getelementptr i8, ptr %1, i64 -24
  %vbase.offset = load i64, ptr %vbase.offset.ptr, align 8
  %add.ptr = getelementptr inbounds i8, ptr %this, i64 %vbase.offset
  store ptr %3, ptr %add.ptr, align 8, !tbaa !14
  %4 = getelementptr inbounds i8, ptr %vtt, i64 40
  %5 = load ptr, ptr %4, align 8
  %vtable3 = load ptr, ptr %this, align 8, !tbaa !14
  %vbase.offset.ptr4 = getelementptr i8, ptr %vtable3, i64 -32
  %vbase.offset5 = load i64, ptr %vbase.offset.ptr4, align 8
  %add.ptr6 = getelementptr inbounds i8, ptr %this, i64 %vbase.offset5
  store ptr %5, ptr %add.ptr6, align 8, !tbaa !14
  ret void
}